; Function Attrs: nounwind uwtable
define ptr @l_List_forIn_x27_loop___at___private_Lean_Meta_Tactic_Grind_EMatch_0__Lean_Meta_Grind_EMatch_main___spec__1___lambda__1___boxed(ptr noundef readonly captures(none) %0) local_unnamed_addr #0 {
  %2 = load ptr, ptr %0, align 8, !tbaa !4
  %3 = getelementptr inbounds nuw i8, ptr %0, i64 8
  %4 = load ptr, ptr %3, align 8, !tbaa !4
  %5 = getelementptr inbounds nuw i8, ptr %0, i64 16
  %6 = load ptr, ptr %5, align 8, !tbaa !4
  %7 = getelementptr inbounds nuw i8, ptr %0, i64 24
  %8 = load ptr, ptr %7, align 8, !tbaa !4
  %9 = getelementptr inbounds nuw i8, ptr %0, i64 32
  %10 = load ptr, ptr %9, align 8, !tbaa !4
  %11 = getelementptr inbounds nuw i8, ptr %0, i64 40
  %12 = load ptr, ptr %11, align 8, !tbaa !4
  %13 = getelementptr inbounds nuw i8, ptr %0, i64 48
  %14 = load ptr, ptr %13, align 8, !tbaa !4
  %15 = getelementptr inbounds nuw i8, ptr %0, i64 56
  %16 = load ptr, ptr %15, align 8, !tbaa !4
  %17 = getelementptr inbounds nuw i8, ptr %0, i64 64
  %18 = load ptr, ptr %17, align 8, !tbaa !4
  %19 = getelementptr inbounds nuw i8, ptr %0, i64 72
  %20 = load ptr, ptr %19, align 8, !tbaa !4
  %21 = getelementptr inbounds nuw i8, ptr %0, i64 80
  %22 = load ptr, ptr %21, align 8, !tbaa !4
  %23 = getelementptr inbounds nuw i8, ptr %0, i64 88
  %24 = load ptr, ptr %23, align 8, !tbaa !4
  %25 = getelementptr inbounds nuw i8, ptr %0, i64 96
  %26 = load ptr, ptr %25, align 8, !tbaa !4
  %27 = getelementptr inbounds nuw i8, ptr %0, i64 104
  %28 = load ptr, ptr %27, align 8, !tbaa !4
  %29 = getelementptr inbounds nuw i8, ptr %0, i64 112
  %30 = load ptr, ptr %29, align 8, !tbaa !4
  %31 = getelementptr inbounds nuw i8, ptr %0, i64 120
  %32 = load ptr, ptr %31, align 8, !tbaa !4
  %33 = getelementptr inbounds nuw i8, ptr %0, i64 128
  %34 = load ptr, ptr %33, align 8, !tbaa !4
  %35 = getelementptr inbounds nuw i8, ptr %0, i64 136
  %36 = load ptr, ptr %35, align 8, !tbaa !4
  %37 = getelementptr inbounds nuw i8, ptr %0, i64 144
  %38 = load ptr, ptr %37, align 8, !tbaa !4
  %39 = ptrtoint ptr %12 to i64
  %40 = lshr i64 %39, 1
  %41 = trunc i64 %40 to i8
  %42 = and i64 %39, 1
  %.not = icmp eq i64 %42, 0
  br i1 %.not, label %43, label %lean_dec.exit45

43:                                               ; preds = %1
  %44 = load i32, ptr %12, align 4, !tbaa !8
  %45 = icmp sgt i32 %44, 1
  br i1 %45, label %46, label %48, !prof !11

46:                                               ; preds = %43
  %47 = add nsw i32 %44, -1
  store i32 %47, ptr %12, align 4, !tbaa !8
  br label %lean_dec.exit45

48:                                               ; preds = %43
  %.not.i = icmp eq i32 %44, 0
  br i1 %.not.i, label %lean_dec.exit45, label %49

49:                                               ; preds = %48
  tail call void @lean_dec_ref_cold(ptr noundef nonnull %12) #5
  br label %lean_dec.exit45

lean_dec.exit45:                                  ; preds = %49, %48, %46, %1
  %50 = tail call ptr @l_List_forIn_x27_loop___at___private_Lean_Meta_Tactic_Grind_EMatch_0__Lean_Meta_Grind_EMatch_main___spec__1___lambda__1(ptr noundef %2, ptr noundef %4, ptr noundef %6, ptr noundef %8, ptr noundef %10, i8 noundef zeroext %41, ptr noundef %14, ptr poison, ptr noundef %18, ptr noundef %20, ptr noundef %22, ptr noundef %24, ptr noundef %26, ptr noundef %28, ptr noundef %30, ptr noundef %32, ptr noundef %34, ptr noundef %36, ptr noundef %38)
  %51 = ptrtoint ptr %16 to i64
  %52 = and i64 %51, 1
  %.not52 = icmp eq i64 %52, 0
  br i1 %.not52, label %53, label %lean_dec.exit44

53:                                               ; preds = %lean_dec.exit45
  %54 = load i32, ptr %16, align 4, !tbaa !8
  %55 = icmp sgt i32 %54, 1
  br i1 %55, label %56, label %58, !prof !11

56:                                               ; preds = %53
  %57 = add nsw i32 %54, -1
  store i32 %57, ptr %16, align 4, !tbaa !8
  br label %lean_dec.exit44

58:                                               ; preds = %53
  %.not.i46 = icmp eq i32 %54, 0
  br i1 %.not.i46, label %lean_dec.exit44, label %59

59:                                               ; preds = %58
  tail call void @lean_dec_ref_cold(ptr noundef nonnull %16) #5
  br label %lean_dec.exit44

lean_dec.exit44:                                  ; preds = %59, %58, %56, %lean_dec.exit45
  %60 = ptrtoint ptr %14 to i64
  %61 = and i64 %60, 1
  %.not53 = icmp eq i64 %61, 0
  br i1 %.not53, label %62, label %lean_dec.exit43

62:                                               ; preds = %lean_dec.exit44
  %63 = load i32, ptr %14, align 4, !tbaa !8
  %64 = icmp sgt i32 %63, 1
  br i1 %64, label %65, label %67, !prof !11

65:                                               ; preds = %62
  %66 = add nsw i32 %63, -1
  store i32 %66, ptr %14, align 4, !tbaa !8
  br label %lean_dec.exit43

67:                                               ; preds = %62
  %.not.i48 = icmp eq i32 %63, 0
  br i1 %.not.i48, label %lean_dec.exit43, label %68

68:                                               ; preds = %67
  tail call void @lean_dec_ref_cold(ptr noundef nonnull %14) #5
  br label %lean_dec.exit43

lean_dec.exit43:                                  ; preds = %68, %67, %65, %lean_dec.exit44
  %69 = ptrtoint ptr %8 to i64
  %70 = and i64 %69, 1
  %.not54 = icmp eq i64 %70, 0
  br i1 %.not54, label %71, label %lean_dec.exit

71:                                               ; preds = %lean_dec.exit43
  %72 = load i32, ptr %8, align 4, !tbaa !8
  %73 = icmp sgt i32 %72, 1
  br i1 %73, label %74, label %76, !prof !11

74:                                               ; preds = %71
  %75 = add nsw i32 %72, -1
  store i32 %75, ptr %8, align 4, !tbaa !8
  br label %lean_dec.exit

76:                                               ; preds = %71
  %.not.i50 = icmp eq i32 %72, 0
  br i1 %.not.i50, label %lean_dec.exit, label %77

77:                                               ; preds = %76
  tail call void @lean_dec_ref_cold(ptr noundef nonnull %8) #5
  br label %lean_dec.exit

lean_dec.exit:                                    ; preds = %77, %76, %74, %lean_dec.exit43
  ret ptr %50
}